; ModuleID = '54/736.c'
source_filename = "54/736.c"
target datalayout = "e-m:e-p270:32:32-p271:32:32-p272:64:64-i64:64-f80:128-n8:16:32:64-S128"
target triple = "x86_64-pc-linux-gnu"

@.str = private unnamed_addr constant [6 x i8] c"%d %d\00", align 1
@.str.1 = private unnamed_addr constant [3 x i8] c"%d\00", align 1

; Function Attrs: noinline nounwind uwtable
define dso_local void @main() #0 {
  %1 = alloca i32, align 4
  %2 = alloca i32, align 4
  %3 = alloca i32, align 4
  %4 = alloca i32, align 4
  %5 = alloca i32, align 4
  %6 = alloca i32, align 4
  %7 = alloca i32, align 4
  store i32 1, i32* %6, align 4
  store i32 1, i32* %7, align 4
  %8 = call i32 (i8*, ...) @__isoc99_scanf(i8* getelementptr inbounds ([6 x i8], [6 x i8]* @.str, i64 0, i64 0), i32* %1, i32* %2)
  store i32 0, i32* %4, align 4
  br label %9

9:                                                ; preds = %17, %0
  %10 = load i32, i32* %4, align 4
  %11 = load i32, i32* %1, align 4
  %12 = icmp slt i32 %10, %11
  br i1 %12, label %13, label %20

13:                                               ; preds = %9
  %14 = load i32, i32* %6, align 4
  %15 = load i32, i32* %1, align 4
  %16 = mul nsw i32 %14, %15
  store i32 %16, i32* %6, align 4
  br label %17

17:                                               ; preds = %13
  %18 = load i32, i32* %4, align 4
  %19 = add nsw i32 %18, 1
  store i32 %19, i32* %4, align 4
  br label %9

20:                                               ; preds = %9
  store i32 0, i32* %5, align 4
  br label %21

21:                                               ; preds = %31, %20
  %22 = load i32, i32* %5, align 4
  %23 = load i32, i32* %1, align 4
  %24 = sub nsw i32 %23, 1
  %25 = icmp slt i32 %22, %24
  br i1 %25, label %26, label %34

26:                                               ; preds = %21
  %27 = load i32, i32* %7, align 4
  %28 = load i32, i32* %1, align 4
  %29 = sub nsw i32 %28, 1
  %30 = mul nsw i32 %27, %29
  store i32 %30, i32* %7, align 4
  br label %31

31:                                               ; preds = %26
  %32 = load i32, i32* %5, align 4
  %33 = add nsw i32 %32, 1
  store i32 %33, i32* %5, align 4
  br label %21

34:                                               ; preds = %21
  %35 = load i32, i32* %2, align 4
  %36 = add nsw i32 %35, 1
  %37 = load i32, i32* %6, align 4
  %38 = mul nsw i32 %36, %37
  %39 = load i32, i32* %7, align 4
  %40 = sdiv i32 %38, %39
  %41 = load i32, i32* %2, align 4
  %42 = sub nsw i32 %40, %41
  %43 = load i32, i32* %1, align 4
  %44 = load i32, i32* %2, align 4
  %45 = mul nsw i32 %43, %44
  %46 = sub nsw i32 %42, %45
  store i32 %46, i32* %3, align 4
  br label %47

47:                                               ; preds = %58, %34
  %48 = load i32, i32* %3, align 4
  %49 = load i32, i32* %2, align 4
  %50 = load i32, i32* %1, align 4
  %51 = mul nsw i32 %49, %50
  %52 = add nsw i32 %48, %51
  %53 = load i32, i32* %2, align 4
  %54 = sub nsw i32 %52, %53
  %55 = load i32, i32* %6, align 4
  %56 = srem i32 %54, %55
  %57 = icmp ne i32 %56, 0
  br i1 %57, label %58, label %61

58:                                               ; preds = %47
  %59 = load i32, i32* %3, align 4
  %60 = add nsw i32 %59, 1
  store i32 %60, i32* %3, align 4
  br label %47

61:                                               ; preds = %47
  %62 = load i32, i32* %3, align 4
  %63 = call i32 (i8*, ...) @printf(i8* getelementptr inbounds ([3 x i8], [3 x i8]* @.str.1, i64 0, i64 0), i32 %62)
  ret void
}

declare dso_local i32 @__isoc99_scanf(i8*, ...) #1

declare dso_local i32 @printf(i8*, ...) #1


!llvm.module.flags = !{!0}
!llvm.ident = !{!1}

!0 = !{i32 1, !"wchar_size", i32 4}
!1 = !{!"clang version 10.0.0-4ubuntu1 "}
